; ModuleID = 'source-C-CXX/42/121.c'
source_filename = "source-C-CXX/42/121.c"
target datalayout = "e-m:e-p270:32:32-p271:32:32-p272:64:64-i64:64-f80:128-n8:16:32:64-S128"
target triple = "x86_64-pc-linux-gnu"

%struct._IO_FILE = type { i32, i8*, i8*, i8*, i8*, i8*, i8*, i8*, i8*, i8*, i8*, i8*, %struct._IO_marker*, %struct._IO_FILE*, i32, i32, i64, i16, i8, [1 x i8], i8*, i64, %struct._IO_codecvt*, %struct._IO_wide_data*, %struct._IO_FILE*, i8*, i64, i32, [20 x i8] }
%struct._IO_marker = type opaque
%struct._IO_codecvt = type opaque
%struct._IO_wide_data = type opaque

@.str = private unnamed_addr constant [3 x i8] c"%d\00", align 1
@.str.1 = private unnamed_addr constant [7 x i8] c"%d %d\0A\00", align 1
@stdin = external local_unnamed_addr global %struct._IO_FILE*, align 8

; Function Attrs: nofree nounwind sspstrong uwtable
define dso_local i32 @main() local_unnamed_addr #0 {
  %1 = alloca i32, align 4
  %2 = bitcast i32* %1 to i8*
  call void @llvm.lifetime.start.p0i8(i64 4, i8* nonnull %2) #3
  %3 = call i32 (i8*, ...) @__isoc99_scanf(i8* getelementptr inbounds ([3 x i8], [3 x i8]* @.str, i64 0, i64 0), i32* nonnull %1)
  %4 = load i32, i32* %1, align 4, !tbaa !5
  %5 = icmp slt i32 %4, 6
  br i1 %5, label %33, label %6

6:                                                ; preds = %0, %28
  %7 = phi i32 [ %29, %28 ], [ %4, %0 ]
  %8 = phi i32 [ %30, %28 ], [ 3, %0 ]
  br label %9

9:                                                ; preds = %6, %9
  %10 = phi i32 [ %11, %9 ], [ 1, %6 ]
  %11 = add nuw nsw i32 %10, 1
  %12 = urem i32 %8, %11
  %13 = icmp eq i32 %12, 0
  br i1 %13, label %14, label %9, !llvm.loop !9

14:                                               ; preds = %9
  %15 = icmp eq i32 %11, %8
  br i1 %15, label %16, label %28

16:                                               ; preds = %14
  %17 = sub nsw i32 %7, %8
  br label %18

18:                                               ; preds = %16, %18
  %19 = phi i32 [ %20, %18 ], [ 2, %16 ]
  %20 = add nuw nsw i32 %19, 1
  %21 = srem i32 %17, %20
  %22 = icmp eq i32 %21, 0
  br i1 %22, label %23, label %18, !llvm.loop !11

23:                                               ; preds = %18
  %24 = icmp eq i32 %20, %17
  br i1 %24, label %25, label %28

25:                                               ; preds = %23
  %26 = call i32 (i8*, ...) @printf(i8* nonnull dereferenceable(1) getelementptr inbounds ([7 x i8], [7 x i8]* @.str.1, i64 0, i64 0), i32 %8, i32 %17)
  %27 = load i32, i32* %1, align 4, !tbaa !5
  br label %28

28:                                               ; preds = %14, %25, %23
  %29 = phi i32 [ %7, %14 ], [ %27, %25 ], [ %7, %23 ]
  %30 = add nuw nsw i32 %8, 1
  %31 = sdiv i32 %29, 2
  %32 = icmp slt i32 %8, %31
  br i1 %32, label %6, label %33, !llvm.loop !12

33:                                               ; preds = %28, %0
  %34 = load %struct._IO_FILE*, %struct._IO_FILE** @stdin, align 8, !tbaa !13
  %35 = call i32 @getc(%struct._IO_FILE* %34) #3
  %36 = load %struct._IO_FILE*, %struct._IO_FILE** @stdin, align 8, !tbaa !13
  %37 = call i32 @getc(%struct._IO_FILE* %36) #3
  call void @llvm.lifetime.end.p0i8(i64 4, i8* nonnull %2) #3
  ret i32 0
}

; Function Attrs: argmemonly mustprogress nofree nosync nounwind willreturn
declare void @llvm.lifetime.start.p0i8(i64 immarg, i8* nocapture) #1

; Function Attrs: nofree nounwind
declare noundef i32 @__isoc99_scanf(i8* nocapture noundef readonly, ...) local_unnamed_addr #2

; Function Attrs: nofree nounwind
declare noundef i32 @printf(i8* nocapture noundef readonly, ...) local_unnamed_addr #2

; Function Attrs: argmemonly mustprogress nofree nosync nounwind willreturn
declare void @llvm.lifetime.end.p0i8(i64 immarg, i8* nocapture) #1

; Function Attrs: nofree nounwind
declare noundef i32 @getc(%struct._IO_FILE* nocapture noundef) local_unnamed_addr #2


!llvm.module.flags = !{!0, !1, !2, !3}
!llvm.ident = !{!4}

!0 = !{i32 1, !"wchar_size", i32 4}
!1 = !{i32 7, !"PIC Level", i32 2}
!2 = !{i32 7, !"PIE Level", i32 2}
!3 = !{i32 7, !"uwtable", i32 1}
!4 = !{!"clang version 13.0.0"}
!5 = !{!6, !6, i64 0}
!6 = !{!"int", !7, i64 0}
!7 = !{!"omnipotent char", !8, i64 0}
!8 = !{!"Simple C/C++ TBAA"}
!9 = distinct !{!9, !10}
!10 = !{!"llvm.loop.mustprogress"}
!11 = distinct !{!11, !10}
!12 = distinct !{!12, !10}
!13 = !{!14, !14, i64 0}
!14 = !{!"any pointer", !7, i64 0}
